target datalayout = "e-m:e-p270:32:32-p271:32:32-p272:64:64-i64:64-i128:128-f80:128-n8:16:32:64-S128"
target triple = "x86_64-pc-linux-gnu"

%struct.Cbs3_Par_t_ = type { i32, i32, i32, i32, i32, i32, i32, i32 }
%struct.Cbs3_Man_t_ = type { %struct.Cbs3_Par_t_, ptr, %struct.Cbs3_Que_t_, %struct.Cbs3_Que_t_, %struct.Cbs3_Que_t_, ptr, ptr, i32, i32, i32, %struct.Vec_Int_t_, %struct.Vec_Int_t_, %struct.Vec_Int_t_, %struct.Vec_Wec_t_, %struct.Vec_Str_t_, %struct.Vec_Str_t_, %struct.Vec_Int_t_, %struct.Vec_Int_t_, %struct.Vec_Int_t_, %struct.Vec_Int_t_, i32, i32, i32, i32, i32, i32, i32, i64, i64, i64, i64, i64, i64, [3 x i32], [2 x i32], i32, i32 }
%struct.Cbs3_Que_t_ = type { i32, i32, i32, ptr }
%struct.Vec_Wec_t_ = type { i32, i32, ptr }
%struct.Vec_Str_t_ = type { i32, i32, ptr }
%struct.Vec_Int_t_ = type { i32, i32, ptr }

; Function Attrs: inlinehint nounwind uwtable
define internal void @Vec_StrWriteEntry(ptr noundef %0, i32 noundef %1, i8 noundef signext %2) #5 {
  %4 = alloca ptr, align 8
  %5 = alloca i32, align 4
  %6 = alloca i8, align 1
  store ptr %0, ptr %4, align 8, !tbaa !50
  store i32 %1, ptr %5, align 4, !tbaa !16
  store i8 %2, ptr %6, align 1, !tbaa !52
  %7 = load i8, ptr %6, align 1, !tbaa !52
  %8 = load ptr, ptr %4, align 8, !tbaa !50
  %9 = getelementptr inbounds nuw %struct.Vec_Str_t_, ptr %8, i32 0, i32 2
  %10 = load ptr, ptr %9, align 8, !tbaa !54
  %11 = load i32, ptr %5, align 4, !tbaa !16
  %12 = sext i32 %11 to i64
  %13 = getelementptr inbounds i8, ptr %10, i64 %12
  store i8 %7, ptr %13, align 1, !tbaa !52
  ret void
}

; Function Attrs: inlinehint nounwind uwtable
define internal void @Vec_IntWriteEntry(ptr noundef %0, i32 noundef %1, i32 noundef %2) #5 {
  %4 = alloca ptr, align 8
  %5 = alloca i32, align 4
  %6 = alloca i32, align 4
  store ptr %0, ptr %4, align 8, !tbaa !42
  store i32 %1, ptr %5, align 4, !tbaa !16
  store i32 %2, ptr %6, align 4, !tbaa !16
  %7 = load i32, ptr %6, align 4, !tbaa !16
  %8 = load ptr, ptr %4, align 8, !tbaa !42
  %9 = getelementptr inbounds nuw %struct.Vec_Int_t_, ptr %8, i32 0, i32 2
  %10 = load ptr, ptr %9, align 8, !tbaa !45
  %11 = load i32, ptr %5, align 4, !tbaa !16
  %12 = sext i32 %11 to i64
  %13 = getelementptr inbounds i32, ptr %10, i64 %12
  store i32 %7, ptr %13, align 4, !tbaa !16
  ret void
}

; Function Attrs: inlinehint nounwind uwtable
define internal void @Cbs3_QuePush(ptr noundef %0, i32 noundef %1) #5 {
  %3 = alloca ptr, align 8
  %4 = alloca i32, align 4
  store ptr %0, ptr %3, align 8, !tbaa !70
  store i32 %1, ptr %4, align 4, !tbaa !16
  %5 = load ptr, ptr %3, align 8, !tbaa !70
  %6 = getelementptr inbounds nuw %struct.Cbs3_Que_t_, ptr %5, i32 0, i32 1
  %7 = load i32, ptr %6, align 4, !tbaa !72
  %8 = load ptr, ptr %3, align 8, !tbaa !70
  %9 = getelementptr inbounds nuw %struct.Cbs3_Que_t_, ptr %8, i32 0, i32 2
  %10 = load i32, ptr %9, align 8, !tbaa !73
  %11 = icmp eq i32 %7, %10
  br i1 %11, label %12, label %42

12:                                               ; preds = %2
  %13 = load ptr, ptr %3, align 8, !tbaa !70
  %14 = getelementptr inbounds nuw %struct.Cbs3_Que_t_, ptr %13, i32 0, i32 2
  %15 = load i32, ptr %14, align 8, !tbaa !73
  %16 = mul nsw i32 %15, 2
  store i32 %16, ptr %14, align 8, !tbaa !73
  %17 = load ptr, ptr %3, align 8, !tbaa !70
  %18 = getelementptr inbounds nuw %struct.Cbs3_Que_t_, ptr %17, i32 0, i32 3
  %19 = load ptr, ptr %18, align 8, !tbaa !74
  %20 = icmp ne ptr %19, null
  br i1 %20, label %21, label %31

21:                                               ; preds = %12
  %22 = load ptr, ptr %3, align 8, !tbaa !70
  %23 = getelementptr inbounds nuw %struct.Cbs3_Que_t_, ptr %22, i32 0, i32 3
  %24 = load ptr, ptr %23, align 8, !tbaa !74
  %25 = load ptr, ptr %3, align 8, !tbaa !70
  %26 = getelementptr inbounds nuw %struct.Cbs3_Que_t_, ptr %25, i32 0, i32 2
  %27 = load i32, ptr %26, align 8, !tbaa !73
  %28 = sext i32 %27 to i64
  %29 = mul i64 4, %28
  %30 = call ptr @realloc(ptr noundef %24, i64 noundef %29) #15
  br label %38

31:                                               ; preds = %12
  %32 = load ptr, ptr %3, align 8, !tbaa !70
  %33 = getelementptr inbounds nuw %struct.Cbs3_Que_t_, ptr %32, i32 0, i32 2
  %34 = load i32, ptr %33, align 8, !tbaa !73
  %35 = sext i32 %34 to i64
  %36 = mul i64 4, %35
  %37 = call noalias ptr @malloc(i64 noundef %36) #14
  br label %38

38:                                               ; preds = %31, %21
  %39 = phi ptr [ %30, %21 ], [ %37, %31 ]
  %40 = load ptr, ptr %3, align 8, !tbaa !70
  %41 = getelementptr inbounds nuw %struct.Cbs3_Que_t_, ptr %40, i32 0, i32 3
  store ptr %39, ptr %41, align 8, !tbaa !74
  br label %42

42:                                               ; preds = %38, %2
  %43 = load i32, ptr %4, align 4, !tbaa !16
  %44 = load ptr, ptr %3, align 8, !tbaa !70
  %45 = getelementptr inbounds nuw %struct.Cbs3_Que_t_, ptr %44, i32 0, i32 3
  %46 = load ptr, ptr %45, align 8, !tbaa !74
  %47 = load ptr, ptr %3, align 8, !tbaa !70
  %48 = getelementptr inbounds nuw %struct.Cbs3_Que_t_, ptr %47, i32 0, i32 1
  %49 = load i32, ptr %48, align 4, !tbaa !72
  %50 = add nsw i32 %49, 1
  store i32 %50, ptr %48, align 4, !tbaa !72
  %51 = sext i32 %49 to i64
  %52 = getelementptr inbounds i32, ptr %46, i64 %51
  store i32 %43, ptr %52, align 4, !tbaa !16
  ret void
}

; Function Attrs: inlinehint nounwind uwtable
define internal void @Cbs3_VarSetValue(ptr noundef %0, i32 noundef %1, i32 noundef %2) #5 {
  %4 = alloca ptr, align 8
  %5 = alloca i32, align 4
  %6 = alloca i32, align 4
  store ptr %0, ptr %4, align 8, !tbaa !14
  store i32 %1, ptr %5, align 4, !tbaa !16
  store i32 %2, ptr %6, align 4, !tbaa !16
  %7 = load ptr, ptr %4, align 8, !tbaa !14
  %8 = getelementptr inbounds nuw %struct.Cbs3_Man_t_, ptr %7, i32 0, i32 14
  %9 = load i32, ptr %5, align 4, !tbaa !16
  %10 = load i32, ptr %6, align 4, !tbaa !16
  %11 = trunc i32 %10 to i8
  call void @Vec_StrWriteEntry(ptr noundef %8, i32 noundef %9, i8 noundef signext %11)
  ret void
}

; Function Attrs: inlinehint nounwind uwtable
define internal i32 @Abc_LitIsCompl(i32 noundef %0) #5 {
  %2 = alloca i32, align 4
  store i32 %0, ptr %2, align 4, !tbaa !16
  %3 = load i32, ptr %2, align 4, !tbaa !16
  %4 = and i32 %3, 1
  ret i32 %4
}

; Function Attrs: inlinehint nounwind uwtable
define internal i32 @Abc_Lit2Var(i32 noundef %0) #5 {
  %2 = alloca i32, align 4
  store i32 %0, ptr %2, align 4, !tbaa !16
  %3 = load i32, ptr %2, align 4, !tbaa !16
  %4 = ashr i32 %3, 1
  ret i32 %4
}

; Function Attrs: inlinehint nounwind uwtable
define internal void @Cbs3_ManAssign(ptr noundef %0, i32 noundef %1, i32 noundef %2, i32 noundef %3, i32 noundef %4) #5 {
  %6 = alloca ptr, align 8
  %7 = alloca i32, align 4
  %8 = alloca i32, align 4
  %9 = alloca i32, align 4
  %10 = alloca i32, align 4
  %11 = alloca i32, align 4
  store ptr %0, ptr %6, align 8, !tbaa !14
  store i32 %1, ptr %7, align 4, !tbaa !16
  store i32 %2, ptr %8, align 4, !tbaa !16
  store i32 %3, ptr %9, align 4, !tbaa !16
  store i32 %4, ptr %10, align 4, !tbaa !16
  call void @llvm.lifetime.start.p0(i64 4, ptr %11) #12
  %12 = load i32, ptr %7, align 4, !tbaa !16
  %13 = call i32 @Abc_Lit2Var(i32 noundef %12)
  store i32 %13, ptr %11, align 4, !tbaa !16
  %14 = load ptr, ptr %6, align 8, !tbaa !14
  %15 = load i32, ptr %11, align 4, !tbaa !16
  %16 = load i32, ptr %7, align 4, !tbaa !16
  %17 = call i32 @Abc_LitIsCompl(i32 noundef %16)
  %18 = icmp ne i32 %17, 0
  %19 = xor i1 %18, true
  %20 = zext i1 %19 to i32
  call void @Cbs3_VarSetValue(ptr noundef %14, i32 noundef %15, i32 noundef %20)
  %21 = load ptr, ptr %6, align 8, !tbaa !14
  %22 = getelementptr inbounds nuw %struct.Cbs3_Man_t_, ptr %21, i32 0, i32 2
  %23 = load i32, ptr %7, align 4, !tbaa !16
  call void @Cbs3_QuePush(ptr noundef %22, i32 noundef %23)
  %24 = load ptr, ptr %6, align 8, !tbaa !14
  %25 = getelementptr inbounds nuw %struct.Cbs3_Man_t_, ptr %24, i32 0, i32 16
  %26 = load i32, ptr %11, align 4, !tbaa !16
  %27 = mul nsw i32 3, %26
  %28 = load i32, ptr %8, align 4, !tbaa !16
  call void @Vec_IntWriteEntry(ptr noundef %25, i32 noundef %27, i32 noundef %28)
  %29 = load ptr, ptr %6, align 8, !tbaa !14
  %30 = getelementptr inbounds nuw %struct.Cbs3_Man_t_, ptr %29, i32 0, i32 16
  %31 = load i32, ptr %11, align 4, !tbaa !16
  %32 = mul nsw i32 3, %31
  %33 = add nsw i32 %32, 1
  %34 = load i32, ptr %9, align 4, !tbaa !16
  call void @Vec_IntWriteEntry(ptr noundef %30, i32 noundef %33, i32 noundef %34)
  %35 = load ptr, ptr %6, align 8, !tbaa !14
  %36 = getelementptr inbounds nuw %struct.Cbs3_Man_t_, ptr %35, i32 0, i32 16
  %37 = load i32, ptr %11, align 4, !tbaa !16
  %38 = mul nsw i32 3, %37
  %39 = add nsw i32 %38, 2
  %40 = load i32, ptr %10, align 4, !tbaa !16
  call void @Vec_IntWriteEntry(ptr noundef %36, i32 noundef %39, i32 noundef %40)
  call void @llvm.lifetime.end.p0(i64 4, ptr %11) #12
  ret void
}