; Function Attrs: inlinehint mustprogress nounwind willreturn uwtable
define internal fastcc void @Cbs3_ManAssign(ptr noundef captures(none) %0, i32 noundef %1, i32 noundef %2, i32 noundef range(i32 -1073741824, 1073741824) %3, i32 noundef %4) unnamed_addr #6 {
  %6 = ashr i32 %1, 1
  %7 = getelementptr i8, ptr %0, i64 216
  %.val = load ptr, ptr %7, align 8, !tbaa !44
  %8 = trunc i32 %1 to i8
  %9 = and i8 %8, 1
  %10 = xor i8 %9, 1
  %11 = sext i32 %6 to i64
  %12 = getelementptr inbounds i8, ptr %.val, i64 %11
  store i8 %10, ptr %12, align 1, !tbaa !46
  %13 = getelementptr inbounds nuw i8, ptr %0, i64 44
  %14 = load i32, ptr %13, align 4, !tbaa !53
  %15 = getelementptr inbounds nuw i8, ptr %0, i64 48
  %16 = load i32, ptr %15, align 8, !tbaa !54
  %17 = icmp eq i32 %14, %16
  br i1 %17, label %18, label %._crit_edge.i

._crit_edge.i:                                    ; preds = %5
  %.phi.trans.insert.i = getelementptr inbounds nuw i8, ptr %0, i64 56
  %.pre.i = load ptr, ptr %.phi.trans.insert.i, align 8, !tbaa !55
  br label %Cbs3_QuePush.exit

18:                                               ; preds = %5
  %19 = shl nsw i32 %14, 1
  store i32 %19, ptr %15, align 8, !tbaa !54
  %20 = getelementptr inbounds nuw i8, ptr %0, i64 56
  %21 = load ptr, ptr %20, align 8, !tbaa !55
  %.not.i = icmp eq ptr %21, null
  %22 = sext i32 %19 to i64
  %23 = shl nsw i64 %22, 2
  br i1 %.not.i, label %26, label %24

24:                                               ; preds = %18
  %25 = tail call ptr @realloc(ptr noundef nonnull %21, i64 noundef %23) #24
  %.pre11.pre.i = load i32, ptr %13, align 4, !tbaa !53
  br label %28

26:                                               ; preds = %18
  %27 = tail call noalias ptr @malloc(i64 noundef %23) #23
  br label %28

28:                                               ; preds = %26, %24
  %.pre11.i = phi i32 [ %.pre11.pre.i, %24 ], [ %14, %26 ]
  %29 = phi ptr [ %25, %24 ], [ %27, %26 ]
  store ptr %29, ptr %20, align 8, !tbaa !55
  br label %Cbs3_QuePush.exit

Cbs3_QuePush.exit:                                ; preds = %._crit_edge.i, %28
  %30 = phi i32 [ %14, %._crit_edge.i ], [ %.pre11.i, %28 ]
  %31 = phi ptr [ %.pre.i, %._crit_edge.i ], [ %29, %28 ]
  %32 = add nsw i32 %30, 1
  store i32 %32, ptr %13, align 4, !tbaa !53
  %33 = sext i32 %30 to i64
  %34 = getelementptr inbounds i32, ptr %31, i64 %33
  store i32 %1, ptr %34, align 4, !tbaa !37
  %35 = mul nsw i32 %6, 3
  %36 = getelementptr i8, ptr %0, i64 248
  %.val14 = load ptr, ptr %36, align 8, !tbaa !33
  %37 = sext i32 %35 to i64
  %38 = getelementptr i32, ptr %.val14, i64 %37
  store i32 %2, ptr %38, align 4, !tbaa !37
  %39 = getelementptr i8, ptr %38, i64 4
  store i32 %3, ptr %39, align 4, !tbaa !37
  %40 = getelementptr i8, ptr %38, i64 8
  store i32 %4, ptr %40, align 4, !tbaa !37
  ret void
}